; ModuleID = '23/1213.c'
source_filename = "23/1213.c"
target datalayout = "e-m:e-p270:32:32-p271:32:32-p272:64:64-i64:64-f80:128-n8:16:32:64-S128"
target triple = "x86_64-pc-linux-gnu"

@.str = private unnamed_addr constant [3 x i8] c"%c\00", align 1
@.str.1 = private unnamed_addr constant [2 x i8] c" \00", align 1

; Function Attrs: noinline nounwind uwtable
define dso_local void @daopai(i8* %0) #0 {
  %2 = alloca i8*, align 8
  %3 = alloca i32, align 4
  %4 = alloca i32, align 4
  %5 = alloca i32, align 4
  %6 = alloca [100 x i8*], align 16
  store i8* %0, i8** %2, align 8
  store i32 0, i32* %4, align 4
  store i32 0, i32* %5, align 4
  store i32 0, i32* %3, align 4
  br label %7

7:                                                ; preds = %47, %1
  %8 = load i8*, i8** %2, align 8
  %9 = load i32, i32* %3, align 4
  %10 = sext i32 %9 to i64
  %11 = getelementptr inbounds i8, i8* %8, i64 %10
  %12 = load i8, i8* %11, align 1
  %13 = sext i8 %12 to i32
  %14 = icmp ne i32 %13, 0
  br i1 %14, label %15, label %50

15:                                               ; preds = %7
  %16 = load i8*, i8** %2, align 8
  %17 = load i32, i32* %3, align 4
  %18 = sext i32 %17 to i64
  %19 = getelementptr inbounds i8, i8* %16, i64 %18
  %20 = load i8, i8* %19, align 1
  %21 = sext i8 %20 to i32
  %22 = icmp ne i32 %21, 32
  br i1 %22, label %23, label %34

23:                                               ; preds = %15
  %24 = load i32, i32* %4, align 4
  %25 = icmp eq i32 %24, 0
  br i1 %25, label %26, label %34

26:                                               ; preds = %23
  %27 = load i8*, i8** %2, align 8
  %28 = load i32, i32* %3, align 4
  %29 = sext i32 %28 to i64
  %30 = getelementptr inbounds i8, i8* %27, i64 %29
  %31 = load i32, i32* %5, align 4
  %32 = sext i32 %31 to i64
  %33 = getelementptr inbounds [100 x i8*], [100 x i8*]* %6, i64 0, i64 %32
  store i8* %30, i8** %33, align 8
  store i32 1, i32* %4, align 4
  br label %46

34:                                               ; preds = %23, %15
  %35 = load i8*, i8** %2, align 8
  %36 = load i32, i32* %3, align 4
  %37 = sext i32 %36 to i64
  %38 = getelementptr inbounds i8, i8* %35, i64 %37
  %39 = load i8, i8* %38, align 1
  %40 = sext i8 %39 to i32
  %41 = icmp eq i32 %40, 32
  br i1 %41, label %42, label %45

42:                                               ; preds = %34
  %43 = load i32, i32* %5, align 4
  %44 = add nsw i32 %43, 1
  store i32 %44, i32* %5, align 4
  store i32 0, i32* %4, align 4
  br label %45

45:                                               ; preds = %42, %34
  br label %46

46:                                               ; preds = %45, %26
  br label %47

47:                                               ; preds = %46
  %48 = load i32, i32* %3, align 4
  %49 = add nsw i32 %48, 1
  store i32 %49, i32* %3, align 4
  br label %7

50:                                               ; preds = %7
  %51 = load i32, i32* %5, align 4
  %52 = icmp ne i32 %51, 0
  br i1 %52, label %53, label %129

53:                                               ; preds = %50
  br label %54

54:                                               ; preds = %70, %53
  %55 = load i32, i32* %5, align 4
  %56 = sext i32 %55 to i64
  %57 = getelementptr inbounds [100 x i8*], [100 x i8*]* %6, i64 0, i64 %56
  %58 = load i8*, i8** %57, align 8
  %59 = load i8, i8* %58, align 1
  %60 = sext i8 %59 to i32
  %61 = icmp ne i32 %60, 0
  br i1 %61, label %62, label %76

62:                                               ; preds = %54
  %63 = load i32, i32* %5, align 4
  %64 = sext i32 %63 to i64
  %65 = getelementptr inbounds [100 x i8*], [100 x i8*]* %6, i64 0, i64 %64
  %66 = load i8*, i8** %65, align 8
  %67 = load i8, i8* %66, align 1
  %68 = sext i8 %67 to i32
  %69 = call i32 (i8*, ...) @printf(i8* getelementptr inbounds ([3 x i8], [3 x i8]* @.str, i64 0, i64 0), i32 %68)
  br label %70

70:                                               ; preds = %62
  %71 = load i32, i32* %5, align 4
  %72 = sext i32 %71 to i64
  %73 = getelementptr inbounds [100 x i8*], [100 x i8*]* %6, i64 0, i64 %72
  %74 = load i8*, i8** %73, align 8
  %75 = getelementptr inbounds i8, i8* %74, i32 1
  store i8* %75, i8** %73, align 8
  br label %54

76:                                               ; preds = %54
  %77 = call i32 (i8*, ...) @printf(i8* getelementptr inbounds ([2 x i8], [2 x i8]* @.str.1, i64 0, i64 0))
  %78 = load i32, i32* %5, align 4
  %79 = sub nsw i32 %78, 1
  store i32 %79, i32* %3, align 4
  br label %80

80:                                               ; preds = %108, %76
  %81 = load i32, i32* %3, align 4
  %82 = icmp sgt i32 %81, 0
  br i1 %82, label %83, label %111

83:                                               ; preds = %80
  br label %84

84:                                               ; preds = %100, %83
  %85 = load i32, i32* %3, align 4
  %86 = sext i32 %85 to i64
  %87 = getelementptr inbounds [100 x i8*], [100 x i8*]* %6, i64 0, i64 %86
  %88 = load i8*, i8** %87, align 8
  %89 = load i8, i8* %88, align 1
  %90 = sext i8 %89 to i32
  %91 = icmp ne i32 %90, 32
  br i1 %91, label %92, label %106

92:                                               ; preds = %84
  %93 = load i32, i32* %3, align 4
  %94 = sext i32 %93 to i64
  %95 = getelementptr inbounds [100 x i8*], [100 x i8*]* %6, i64 0, i64 %94
  %96 = load i8*, i8** %95, align 8
  %97 = load i8, i8* %96, align 1
  %98 = sext i8 %97 to i32
  %99 = call i32 (i8*, ...) @printf(i8* getelementptr inbounds ([3 x i8], [3 x i8]* @.str, i64 0, i64 0), i32 %98)
  br label %100

100:                                              ; preds = %92
  %101 = load i32, i32* %3, align 4
  %102 = sext i32 %101 to i64
  %103 = getelementptr inbounds [100 x i8*], [100 x i8*]* %6, i64 0, i64 %102
  %104 = load i8*, i8** %103, align 8
  %105 = getelementptr inbounds i8, i8* %104, i32 1
  store i8* %105, i8** %103, align 8
  br label %84

106:                                              ; preds = %84
  %107 = call i32 (i8*, ...) @printf(i8* getelementptr inbounds ([2 x i8], [2 x i8]* @.str.1, i64 0, i64 0))
  br label %108

108:                                              ; preds = %106
  %109 = load i32, i32* %3, align 4
  %110 = add nsw i32 %109, -1
  store i32 %110, i32* %3, align 4
  br label %80

111:                                              ; preds = %80
  br label %112

112:                                              ; preds = %124, %111
  %113 = getelementptr inbounds [100 x i8*], [100 x i8*]* %6, i64 0, i64 0
  %114 = load i8*, i8** %113, align 16
  %115 = load i8, i8* %114, align 1
  %116 = sext i8 %115 to i32
  %117 = icmp ne i32 %116, 32
  br i1 %117, label %118, label %128

118:                                              ; preds = %112
  %119 = getelementptr inbounds [100 x i8*], [100 x i8*]* %6, i64 0, i64 0
  %120 = load i8*, i8** %119, align 16
  %121 = load i8, i8* %120, align 1
  %122 = sext i8 %121 to i32
  %123 = call i32 (i8*, ...) @printf(i8* getelementptr inbounds ([3 x i8], [3 x i8]* @.str, i64 0, i64 0), i32 %122)
  br label %124

124:                                              ; preds = %118
  %125 = getelementptr inbounds [100 x i8*], [100 x i8*]* %6, i64 0, i64 0
  %126 = load i8*, i8** %125, align 16
  %127 = getelementptr inbounds i8, i8* %126, i32 1
  store i8* %127, i8** %125, align 16
  br label %112

128:                                              ; preds = %112
  br label %147

129:                                              ; preds = %50
  br label %130

130:                                              ; preds = %142, %129
  %131 = getelementptr inbounds [100 x i8*], [100 x i8*]* %6, i64 0, i64 0
  %132 = load i8*, i8** %131, align 16
  %133 = load i8, i8* %132, align 1
  %134 = sext i8 %133 to i32
  %135 = icmp ne i32 %134, 0
  br i1 %135, label %136, label %146

136:                                              ; preds = %130
  %137 = getelementptr inbounds [100 x i8*], [100 x i8*]* %6, i64 0, i64 0
  %138 = load i8*, i8** %137, align 16
  %139 = load i8, i8* %138, align 1
  %140 = sext i8 %139 to i32
  %141 = call i32 (i8*, ...) @printf(i8* getelementptr inbounds ([3 x i8], [3 x i8]* @.str, i64 0, i64 0), i32 %140)
  br label %142

142:                                              ; preds = %136
  %143 = getelementptr inbounds [100 x i8*], [100 x i8*]* %6, i64 0, i64 0
  %144 = load i8*, i8** %143, align 16
  %145 = getelementptr inbounds i8, i8* %144, i32 1
  store i8* %145, i8** %143, align 16
  br label %130

146:                                              ; preds = %130
  br label %147

147:                                              ; preds = %146, %128
  ret void
}

declare dso_local i32 @printf(i8*, ...) #1

; Function Attrs: noinline nounwind uwtable
define dso_local i32 @main() #0 {
  %1 = alloca i32, align 4
  %2 = alloca [100 x i8], align 16
  %3 = alloca i8*, align 8
  store i32 0, i32* %1, align 4
  %4 = getelementptr inbounds [100 x i8], [100 x i8]* %2, i64 0, i64 0
  store i8* %4, i8** %3, align 8
  %5 = load i8*, i8** %3, align 8
  %6 = call i32 (i8*, ...) bitcast (i32 (...)* @gets to i32 (i8*, ...)*)(i8* %5)
  %7 = load i8*, i8** %3, align 8
  call void @daopai(i8* %7)
  ret i32 0
}

declare dso_local i32 @gets(...) #1


!llvm.module.flags = !{!0}
!llvm.ident = !{!1}

!0 = !{i32 1, !"wchar_size", i32 4}
!1 = !{!"clang version 10.0.0-4ubuntu1 "}
